; Function Attrs: nounwind uwtable
define noalias nonnull ptr @l___private_Lean_Elab_Tactic_BVDecide_LRAT_Trim_0__Lean_Elab_Tactic_BVDecide_LRAT_trim_M_idIndex(ptr noundef %0, ptr noundef readonly captures(none) %1, ptr noundef %2) local_unnamed_addr #0 {
  %4 = getelementptr inbounds nuw i8, ptr %1, i64 16
  %5 = load ptr, ptr %4, align 8, !tbaa !13
  %6 = ptrtoint ptr %0 to i64
  %7 = and i64 %6, 1
  %.not = icmp eq i64 %7, 0
  br i1 %.not, label %.critedge.i, label %8, !prof !8

8:                                                ; preds = %3
  %9 = ptrtoint ptr %5 to i64
  %10 = and i64 %9, 1
  %.not8 = icmp eq i64 %10, 0
  br i1 %.not8, label %.critedge.i, label %11, !prof !8

11:                                               ; preds = %8
  %12 = lshr i64 %6, 1
  %13 = lshr i64 %9, 1
  %14 = icmp samesign ult i64 %12, %13
  br i1 %14, label %lean_nat_sub.exit, label %15

15:                                               ; preds = %11
  %16 = sub nuw nsw i64 %12, %13
  %17 = shl nuw i64 %16, 1
  %18 = or disjoint i64 %17, 1
  %19 = inttoptr i64 %18 to ptr
  br label %lean_nat_sub.exit

.critedge.i:                                      ; preds = %8, %3
  %20 = tail call ptr @lean_nat_big_sub(ptr noundef %0, ptr noundef %5) #3
  br label %lean_nat_sub.exit

lean_nat_sub.exit:                                ; preds = %11, %15, %.critedge.i
  %.1.i = phi ptr [ %20, %.critedge.i ], [ %19, %15 ], [ inttoptr (i64 1 to ptr), %11 ]
  tail call void @lean_inc_heartbeat() #3
  %21 = tail call noalias ptr @mi_malloc_small(i64 noundef 24) #3
  %22 = icmp eq ptr %21, null
  br i1 %22, label %23, label %lean_alloc_ctor.exit

23:                                               ; preds = %lean_nat_sub.exit
  tail call void @lean_internal_panic_out_of_memory() #4
  unreachable

lean_alloc_ctor.exit:                             ; preds = %lean_nat_sub.exit
  %24 = getelementptr inbounds nuw i8, ptr %21, i64 4
  store i32 1, ptr %21, align 4, !tbaa !9
  store i32 131096, ptr %24, align 4
  %25 = getelementptr inbounds nuw i8, ptr %21, i64 8
  store ptr %.1.i, ptr %25, align 8, !tbaa !13
  %26 = getelementptr inbounds nuw i8, ptr %21, i64 16
  store ptr %2, ptr %26, align 8, !tbaa !13
  ret ptr %21
}